target datalayout = "e-m:e-p270:32:32-p271:32:32-p272:64:64-i64:64-i128:128-f80:128-n8:16:32:64-S128"
target triple = "x86_64-pc-linux-gnu"

; Function Attrs: mustprogress nounwind uwtable
define linkonce_odr void @_ZN18duckdb_fastpforlib8internal16pack_single_in64ILt23ELt23ELm8388607EEENSt9enable_ifIXaageplT_T0_Li32EltplT_T0_Li64EEvE4typeEmRrPj(i64 noundef %0, ptr noundef nonnull align 8 dereferenceable(8) %1) #0 comdat {
  %3 = alloca i64, align 8
  %4 = alloca ptr, align 8
  store i64 %0, ptr %3, align 8, !tbaa !23
  store ptr %1, ptr %4, align 8, !tbaa !38
  %5 = load i64, ptr %3, align 8, !tbaa !23
  %6 = and i64 %5, 8388607
  %7 = shl i64 %6, 23
  %8 = load ptr, ptr %4, align 8, !tbaa !38
  %9 = load ptr, ptr %8, align 8, !tbaa !16
  %10 = load i32, ptr %9, align 4, !tbaa !18
  %11 = zext i32 %10 to i64
  %12 = or i64 %11, %7
  %13 = trunc i64 %12 to i32
  store i32 %13, ptr %9, align 4, !tbaa !18
  %14 = load ptr, ptr %4, align 8, !tbaa !38
  %15 = load ptr, ptr %14, align 8, !tbaa !16
  %16 = getelementptr inbounds nuw i32, ptr %15, i32 1
  store ptr %16, ptr %14, align 8, !tbaa !16
  %17 = load i64, ptr %3, align 8, !tbaa !23
  %18 = and i64 %17, 8388607
  %19 = lshr i64 %18, 9
  %20 = trunc i64 %19 to i32
  %21 = load ptr, ptr %4, align 8, !tbaa !38
  %22 = load ptr, ptr %21, align 8, !tbaa !16
  store i32 %20, ptr %22, align 4, !tbaa !18
  ret void
}

; Function Attrs: mustprogress uwtable
define linkonce_odr void @_ZN18duckdb_fastpforlib8internal8UnrollerILt23ELt1EE4PackEPKmPj(ptr noalias noundef %0, ptr noalias noundef %1) #2 comdat align 2 {
  %3 = alloca ptr, align 8
  %4 = alloca ptr, align 8
  store ptr %0, ptr %3, align 8, !tbaa !21
  store ptr %1, ptr %4, align 8, !tbaa !16
  %5 = load ptr, ptr %3, align 8, !tbaa !21
  %6 = getelementptr inbounds nuw i64, ptr %5, i64 1
  %7 = load i64, ptr %6, align 8, !tbaa !23
  call void @_ZN18duckdb_fastpforlib8internal16pack_single_in64ILt23ELt23ELm8388607EEENSt9enable_ifIXaageplT_T0_Li32EltplT_T0_Li64EEvE4typeEmRrPj(i64 noundef %7, ptr noundef nonnull align 8 dereferenceable(8) %4)
  %8 = load ptr, ptr %3, align 8, !tbaa !21
  %9 = load ptr, ptr %4, align 8, !tbaa !16
  call void @_ZN18duckdb_fastpforlib8internal8UnrollerILt23ELt2EE4PackEPKmPj(ptr noundef %8, ptr noundef %9)
  ret void
}

; Function Attrs: mustprogress nounwind uwtable
define linkonce_odr void @_ZN18duckdb_fastpforlib8internal16pack_single_in64ILt23ELt0ELm8388607EEENSt9enable_ifIXltplT_T0_Li32EEvE4typeEmPj(i64 noundef %0, ptr noalias noundef %1) #0 comdat {
  %3 = alloca i64, align 8
  %4 = alloca ptr, align 8
  store i64 %0, ptr %3, align 8, !tbaa !23
  store ptr %1, ptr %4, align 8, !tbaa !16
  %5 = load i64, ptr %3, align 8, !tbaa !23
  %6 = and i64 %5, 8388607
  %7 = trunc i64 %6 to i32
  %8 = load ptr, ptr %4, align 8, !tbaa !16
  store i32 %7, ptr %8, align 4, !tbaa !18
  ret void
}

; Function Attrs: mustprogress uwtable
define linkonce_odr void @_ZN18duckdb_fastpforlib8internal8UnrollerILt23ELt0EE4PackEPKmPj(ptr noalias noundef %0, ptr noalias noundef %1) #2 comdat align 2 {
  %3 = alloca ptr, align 8
  %4 = alloca ptr, align 8
  store ptr %0, ptr %3, align 8, !tbaa !21
  store ptr %1, ptr %4, align 8, !tbaa !16
  %5 = load ptr, ptr %3, align 8, !tbaa !21
  %6 = getelementptr inbounds nuw i64, ptr %5, i64 0
  %7 = load i64, ptr %6, align 8, !tbaa !23
  %8 = load ptr, ptr %4, align 8, !tbaa !16
  call void @_ZN18duckdb_fastpforlib8internal16pack_single_in64ILt23ELt0ELm8388607EEENSt9enable_ifIXltplT_T0_Li32EEvE4typeEmPj(i64 noundef %7, ptr noundef %8)
  %9 = load ptr, ptr %3, align 8, !tbaa !21
  %10 = load ptr, ptr %4, align 8, !tbaa !16
  call void @_ZN18duckdb_fastpforlib8internal8UnrollerILt23ELt1EE4PackEPKmPj(ptr noundef %9, ptr noundef %10)
  ret void
}

; Function Attrs: mustprogress uwtable
define void @_ZN18duckdb_fastpforlib8internal12__fastpack23EPKmPj(ptr noalias noundef %0, ptr noalias noundef %1) #2 {
  %3 = alloca ptr, align 8
  %4 = alloca ptr, align 8
  store ptr %0, ptr %3, align 8, !tbaa !21
  store ptr %1, ptr %4, align 8, !tbaa !16
  %5 = load ptr, ptr %3, align 8, !tbaa !21
  %6 = load ptr, ptr %4, align 8, !tbaa !16
  call void @_ZN18duckdb_fastpforlib8internal8UnrollerILt23ELt0EE4PackEPKmPj(ptr noundef %5, ptr noundef %6)
  ret void
}